target datalayout = "e-m:e-p270:32:32-p271:32:32-p272:64:64-i64:64-i128:128-f80:128-n8:16:32:64-S128"
target triple = "x86_64-pc-linux-gnu"

%"class.std::__shared_count" = type { ptr }
%"class.std::__cxx11::basic_string" = type { %"struct.std::__cxx11::basic_string<char>::_Alloc_hider", i64, %union.anon }
%"struct.std::__cxx11::basic_string<char>::_Alloc_hider" = type { ptr }
%union.anon = type { i64, [8 x i8] }
%"class.arrow::Status" = type { ptr }
%"struct.arrow::Status::State" = type { i8, i8, %"class.std::__cxx11::basic_string", %"class.std::shared_ptr.474" }
%"class.std::shared_ptr.474" = type { %"class.std::__shared_ptr.475" }
%"class.std::__shared_ptr.475" = type { ptr, %"class.std::__shared_count" }
%"class.arrow::Result.37" = type { %"class.arrow::Status", %"class.arrow::internal::AlignedStorage.40" }
%"class.arrow::internal::AlignedStorage.40" = type { [16 x i8] }

@.str.135 = private unnamed_addr constant [24 x i8] c"Not a decimal type_id: \00", align 1

; Function Attrs: mustprogress nounwind uwtable
define linkonce_odr void @_ZN5arrow4util18EqualityComparableINS_6StatusEED2Ev(ptr noundef nonnull align 1 dereferenceable(1) %0) unnamed_addr #0 comdat align 2 {
  %2 = alloca ptr, align 8
  store ptr %0, ptr %2, align 8, !tbaa !1041
  ret void
}

; Function Attrs: mustprogress nounwind uwtable
define linkonce_odr void @_ZN5arrow4util19ToStringOstreamableINS_6StatusEED2Ev(ptr noundef nonnull align 1 dereferenceable(1) %0) unnamed_addr #0 comdat align 2 {
  %2 = alloca ptr, align 8
  store ptr %0, ptr %2, align 8, !tbaa !1039
  ret void
}

; Function Attrs: mustprogress nounwind uwtable
define linkonce_odr void @_ZN5arrow6StatusD2Ev(ptr noundef nonnull align 8 dereferenceable(8) %0) unnamed_addr #0 comdat align 2 {
  %2 = alloca ptr, align 8
  store ptr %0, ptr %2, align 8, !tbaa !155
  %3 = load ptr, ptr %2, align 8
  %4 = getelementptr inbounds nuw %"class.arrow::Status", ptr %3, i32 0, i32 0
  %5 = load ptr, ptr %4, align 8, !tbaa !157
  %6 = icmp ne ptr %5, null
  %7 = xor i1 %6, true
  %8 = xor i1 %7, true
  %9 = zext i1 %8 to i64
  %10 = call i64 @llvm.expect.i64(i64 %9, i64 0)
  %11 = icmp ne i64 %10, 0
  br i1 %11, label %12, label %20

12:                                               ; preds = %1
  %13 = getelementptr inbounds nuw %"class.arrow::Status", ptr %3, i32 0, i32 0
  %14 = load ptr, ptr %13, align 8, !tbaa !157
  %15 = getelementptr inbounds nuw %"struct.arrow::Status::State", ptr %14, i32 0, i32 1
  %16 = load i8, ptr %15, align 1, !tbaa !170, !range !181, !noundef !182
  %17 = trunc i8 %16 to i1
  br i1 %17, label %19, label %18

18:                                               ; preds = %12
  call void @_ZN5arrow6Status11DeleteStateEv(ptr noundef nonnull align 8 dereferenceable(8) %3) #15
  br label %19

19:                                               ; preds = %18, %12
  br label %20

20:                                               ; preds = %19, %1
  call void @_ZN5arrow4util19ToStringOstreamableINS_6StatusEED2Ev(ptr noundef nonnull align 1 dereferenceable(1) %3) #15
  call void @_ZN5arrow4util18EqualityComparableINS_6StatusEED2Ev(ptr noundef nonnull align 1 dereferenceable(1) %3) #15
  ret void
}

; Function Attrs: mustprogress uwtable
define linkonce_odr void @_ZN5arrow6Status7InvalidIJRA24_KcRNS_4Type4typeEEEES0_DpOT_(ptr dead_on_unwind noalias writable sret(%"class.arrow::Status") align 8 %0, ptr noundef nonnull align 1 dereferenceable(24) %1, ptr noundef nonnull align 4 dereferenceable(4) %2) #1 comdat align 2 {
  %4 = alloca ptr, align 8
  %5 = alloca ptr, align 8
  %6 = alloca ptr, align 8
  store ptr %0, ptr %4, align 8
  store ptr %1, ptr %5, align 8, !tbaa !164
  store ptr %2, ptr %6, align 8, !tbaa !187
  %7 = load ptr, ptr %5, align 8, !tbaa !164
  %8 = load ptr, ptr %6, align 8, !tbaa !187
  call void @_ZN5arrow6Status8FromArgsIJRA24_KcRNS_4Type4typeEEEES0_NS_10StatusCodeEDpOT_(ptr dead_on_unwind writable sret(%"class.arrow::Status") align 8 %0, i8 noundef signext 4, ptr noundef nonnull align 1 dereferenceable(24) %7, ptr noundef nonnull align 4 dereferenceable(4) %8)
  ret void
}

; Function Attrs: mustprogress uwtable
define void @_ZN5arrow11DecimalType4MakeENS_4Type4typeEii(ptr dead_on_unwind noalias writable sret(%"class.arrow::Result.37") align 8 %0, i32 noundef %1, i32 noundef %2, i32 noundef %3) #1 align 2 {
  %5 = alloca ptr, align 8
  %6 = alloca i32, align 4
  %7 = alloca i32, align 4
  %8 = alloca i32, align 4
  %9 = alloca %"class.arrow::Status", align 8
  store ptr %0, ptr %5, align 8
  store i32 %1, ptr %6, align 4, !tbaa !61
  store i32 %2, ptr %7, align 4, !tbaa !8
  store i32 %3, ptr %8, align 4, !tbaa !8
  %10 = load i32, ptr %6, align 4, !tbaa !61
  switch i32 %10, label %23 [
    i32 43, label %11
    i32 44, label %14
    i32 23, label %17
    i32 24, label %20
  ]

11:                                               ; preds = %4
  %12 = load i32, ptr %7, align 4, !tbaa !8
  %13 = load i32, ptr %8, align 4, !tbaa !8
  call void @_ZN5arrow13Decimal32Type4MakeEii(ptr dead_on_unwind writable sret(%"class.arrow::Result.37") align 8 %0, i32 noundef %12, i32 noundef %13)
  br label %24

14:                                               ; preds = %4
  %15 = load i32, ptr %7, align 4, !tbaa !8
  %16 = load i32, ptr %8, align 4, !tbaa !8
  call void @_ZN5arrow13Decimal64Type4MakeEii(ptr dead_on_unwind writable sret(%"class.arrow::Result.37") align 8 %0, i32 noundef %15, i32 noundef %16)
  br label %24

17:                                               ; preds = %4
  %18 = load i32, ptr %7, align 4, !tbaa !8
  %19 = load i32, ptr %8, align 4, !tbaa !8
  call void @_ZN5arrow14Decimal128Type4MakeEii(ptr dead_on_unwind writable sret(%"class.arrow::Result.37") align 8 %0, i32 noundef %18, i32 noundef %19)
  br label %24

20:                                               ; preds = %4
  %21 = load i32, ptr %7, align 4, !tbaa !8
  %22 = load i32, ptr %8, align 4, !tbaa !8
  call void @_ZN5arrow14Decimal256Type4MakeEii(ptr dead_on_unwind writable sret(%"class.arrow::Result.37") align 8 %0, i32 noundef %21, i32 noundef %22)
  br label %24

23:                                               ; preds = %4
  call void @llvm.lifetime.start.p0(i64 8, ptr %9) #15
  call void @_ZN5arrow6Status7InvalidIJRA24_KcRNS_4Type4typeEEEES0_DpOT_(ptr dead_on_unwind writable sret(%"class.arrow::Status") align 8 %9, ptr noundef nonnull align 1 dereferenceable(24) @.str.135, ptr noundef nonnull align 4 dereferenceable(4) %6)
  call void @_ZN5arrow6ResultISt10shared_ptrINS_8DataTypeEEEC2ERKNS_6StatusE(ptr noundef nonnull align 8 dereferenceable(24) %0, ptr noundef nonnull align 8 dereferenceable(8) %9) #15
  call void @_ZN5arrow6StatusD2Ev(ptr noundef nonnull align 8 dereferenceable(8) %9) #15
  call void @llvm.lifetime.end.p0(i64 8, ptr %9) #15
  br label %24

24:                                               ; preds = %23, %20, %17, %14, %11
  ret void
}