; Function Attrs: mustprogress uwtable
define void @_ZN5arrow11DecimalType4MakeENS_4Type4typeEii(ptr dead_on_unwind noalias writable sret(%"class.arrow::Result.37") align 8 %0, i32 noundef %1, i32 noundef %2, i32 noundef %3) local_unnamed_addr #1 align 2 {
  %5 = alloca i32, align 4
  %6 = alloca %"class.arrow::Status", align 8
  store i32 %1, ptr %5, align 4, !tbaa !1141
  switch i32 %1, label %11 [
    i32 43, label %7
    i32 44, label %8
    i32 23, label %9
    i32 24, label %10
  ]

7:                                                ; preds = %4
  tail call void @_ZN5arrow13Decimal32Type4MakeEii(ptr dead_on_unwind writable sret(%"class.arrow::Result.37") align 8 %0, i32 noundef %2, i32 noundef %3)
  br label %18

8:                                                ; preds = %4
  tail call void @_ZN5arrow13Decimal64Type4MakeEii(ptr dead_on_unwind writable sret(%"class.arrow::Result.37") align 8 %0, i32 noundef %2, i32 noundef %3)
  br label %18

9:                                                ; preds = %4
  tail call void @_ZN5arrow14Decimal128Type4MakeEii(ptr dead_on_unwind writable sret(%"class.arrow::Result.37") align 8 %0, i32 noundef %2, i32 noundef %3)
  br label %18

10:                                               ; preds = %4
  tail call void @_ZN5arrow14Decimal256Type4MakeEii(ptr dead_on_unwind writable sret(%"class.arrow::Result.37") align 8 %0, i32 noundef %2, i32 noundef %3)
  br label %18

11:                                               ; preds = %4
  call void @llvm.lifetime.start.p0(i64 8, ptr nonnull %6) #38
  call void @_ZN5arrow6Status8FromArgsIJRA24_KcRNS_4Type4typeEEEES0_NS_10StatusCodeEDpOT_(ptr dead_on_unwind nonnull writable sret(%"class.arrow::Status") align 8 %6, i8 noundef signext 4, ptr noundef nonnull align 1 dereferenceable(24) @.str.135, ptr noundef nonnull align 4 dereferenceable(4) %5)
  call void @_ZN5arrow6ResultISt10shared_ptrINS_8DataTypeEEEC2ERKNS_6StatusE(ptr noundef nonnull align 8 dereferenceable(24) %0, ptr noundef nonnull align 8 dereferenceable(8) %6) #38
  %12 = load ptr, ptr %6, align 8, !tbaa !43
  %.not.i = icmp eq ptr %12, null
  br i1 %.not.i, label %_ZN5arrow6StatusD2Ev.exit, label %13, !prof !46

13:                                               ; preds = %11
  %14 = getelementptr inbounds nuw i8, ptr %12, i64 1
  %15 = load i8, ptr %14, align 1, !tbaa !49, !range !58, !noundef !59
  %16 = trunc nuw i8 %15 to i1
  br i1 %16, label %_ZN5arrow6StatusD2Ev.exit, label %17

17:                                               ; preds = %13
  call void @_ZN5arrow6Status11DeleteStateEv(ptr noundef nonnull align 8 dereferenceable(8) %6) #38
  br label %_ZN5arrow6StatusD2Ev.exit

_ZN5arrow6StatusD2Ev.exit:                        ; preds = %11, %13, %17
  call void @llvm.lifetime.end.p0(i64 8, ptr nonnull %6) #38
  br label %18

18:                                               ; preds = %_ZN5arrow6StatusD2Ev.exit, %10, %9, %8, %7
  ret void
}